target datalayout = "e-m:e-p270:32:32-p271:32:32-p272:64:64-i64:64-i128:128-f80:128-n8:16:32:64-S128"
target triple = "x86_64-pc-linux-gnu"

@cli_debug_flag = external global i8, align 1
@.str.299 = private unnamed_addr constant [17 x i8] c"cli_pdf: %s: %s\0A\00", align 1

; Function Attrs: nounwind uwtable
define internal void @dbg_printhex(ptr noundef %0, ptr noundef %1, i32 noundef %2) #0 {
  %4 = alloca ptr, align 8
  %5 = alloca ptr, align 8
  %6 = alloca i32, align 4
  %7 = alloca ptr, align 8
  store ptr %0, ptr %4, align 8
  store ptr %1, ptr %5, align 8
  store i32 %2, ptr %6, align 4
  %8 = load i8, ptr @cli_debug_flag, align 1
  %9 = icmp ne i8 %8, 0
  br i1 %9, label %10, label %17

10:                                               ; preds = %3
  %11 = load ptr, ptr %5, align 8
  %12 = load i32, ptr %6, align 4
  %13 = call ptr @cli_str2hex(ptr noundef %11, i32 noundef %12)
  store ptr %13, ptr %7, align 8
  %14 = load ptr, ptr %4, align 8
  %15 = load ptr, ptr %7, align 8
  call void (ptr, ...) @cli_dbgmsg(ptr noundef @.str.299, ptr noundef %14, ptr noundef %15)
  %16 = load ptr, ptr %7, align 8
  call void @free(ptr noundef %16) #11
  br label %17

17:                                               ; preds = %10, %3
  ret void
}