; Function Attrs: nounwind uwtable
define internal fastcc void @dbg_printhex(ptr noundef %0, ptr noundef %1, i32 noundef %2) unnamed_addr #0 {
  %4 = load i8, ptr @cli_debug_flag, align 1
  %.not = icmp eq i8 %4, 0
  br i1 %.not, label %7, label %5

5:                                                ; preds = %3
  %6 = tail call ptr @cli_str2hex(ptr noundef %1, i32 noundef %2) #22
  tail call void (ptr, ...) @cli_dbgmsg(ptr noundef nonnull @.str.299, ptr noundef %0, ptr noundef %6) #22
  tail call void @free(ptr noundef %6) #22
  br label %7

7:                                                ; preds = %5, %3
  ret void
}